; Function Attrs: nounwind sspstrong uwtable
define internal range(i32 0, 9) i32 @riscv_gdb_get_csr(ptr noundef %0, ptr noundef %1, i32 noundef %2) #0 {
  %4 = alloca i64, align 8
  %5 = alloca i64, align 8
  %6 = tail call ptr @object_dynamic_cast_assert(ptr noundef %0, ptr noundef nonnull @.str.5, ptr noundef nonnull @.str.6, i32 noundef 56, ptr noundef nonnull @__func__.RISCV_CPU) #7
  %7 = icmp slt i32 %2, 4096
  br i1 %7, label %8, label %14

8:                                                ; preds = %3
  %9 = getelementptr inbounds nuw i8, ptr %6, i64 11200
  call void @llvm.lifetime.start.p0(i64 8, ptr nonnull %5) #7
  store i64 0, ptr %5, align 8
  %10 = call i32 @riscv_csrrw_debug(ptr noundef nonnull %9, i32 noundef %2, ptr noundef nonnull %5, i64 noundef 0, i64 noundef 0) #7
  %.not = icmp eq i32 %10, -1
  br i1 %.not, label %11, label %.sink.split

11:                                               ; preds = %8
  %12 = load i64, ptr %5, align 8
  call void @llvm.lifetime.start.p0(i64 8, ptr nonnull %4) #7
  store i64 %12, ptr %4, align 8
  %13 = call ptr @g_byte_array_append(ptr noundef %1, ptr noundef nonnull %4, i32 noundef 8) #7
  call void @llvm.lifetime.end.p0(i64 8, ptr nonnull %4) #7
  br label %.sink.split

.sink.split:                                      ; preds = %8, %11
  %.1.ph = phi i32 [ 8, %11 ], [ 0, %8 ]
  call void @llvm.lifetime.end.p0(i64 8, ptr nonnull %5) #7
  br label %14

14:                                               ; preds = %.sink.split, %3
  %.1 = phi i32 [ 0, %3 ], [ %.1.ph, %.sink.split ]
  ret i32 %.1
}